target datalayout = "e-m:e-p270:32:32-p271:32:32-p272:64:64-i64:64-i128:128-f80:128-n8:16:32:64-S128"
target triple = "x86_64-pc-linux-gnu"

%"struct.std::_Rb_tree_header" = type { %"struct.std::_Rb_tree_node_base", i64 }
%"struct.std::_Rb_tree_node_base" = type { i32, ptr, ptr, ptr }
%"class.vcg::Matrix44" = type { %"struct.std::array" }
%"struct.std::array" = type { [16 x float] }
%class.QString = type { ptr }
%"class.vcg::Color4" = type { %"class.vcg::Point4" }
%"class.vcg::Point4" = type { [4 x i8] }
%class.GLArea = type <{ %class.QGLWidget, i32, [4 x i8], ptr, %"class.vcg::Trackball", %"class.vcg::Trackball", %class.GLAreaSetting, %class.QMap, %class.QList, i8, i8, [6 x i8], %class.QString, %class.QMap.33, i8, i8, i8, i8, i8, i8, i8, i8, %class.QString, %class.QString, i8, [3 x i8], %"class.vcg::Point2", [4 x i8], ptr, ptr, ptr, %class.QFont, ptr, ptr, ptr, %class.QMap.34, ptr, float, float, float, float, float, [4 x i8], %class.SnapshotSetting, i32, [4 x i8], %class.QMap.35, %class.QMap.35, float, float, %class.QImage, i8, [3 x i8], i32, i32, i32, i32, i32, i8, [3 x i8], i32, i32, i8, [3 x i8], float, i32, %class.QString, i32, [4 x i8] }>
%class.QGLWidget = type { %class.QWidget }
%class.QWidget = type { %class.QObject, %class.QPaintDevice, ptr }
%class.QObject = type { ptr, %class.QScopedPointer }
%class.QScopedPointer = type { ptr }
%class.QPaintDevice = type { ptr, i16, ptr }
%"class.vcg::Trackball" = type <{ %"class.vcg::Transform", %"class.vcg::View", i32, ptr, ptr, ptr, %"class.std::map.17", %"class.vcg::Similarityf", %"class.vcg::Similarityf", %"class.vcg::Similarityf", %"class.vcg::Point3", [4 x i8], %"class.std::vector.25", i8, [3 x i8], i32, i32, %"class.vcg::Quaternion", i8, i8, [2 x i8], %"class.std::__cxx11::list", i32, i8, [3 x i8] }>
%"class.vcg::Transform" = type { %"class.vcg::Similarityf", %"class.vcg::Point3", float }
%"class.vcg::View" = type <{ %"class.vcg::Matrix44", %"class.vcg::Matrix44", %"class.vcg::Matrix44", %"class.vcg::Matrix44", [4 x i32], i8, [3 x i8] }>
%"class.std::map.17" = type { %"class.std::_Rb_tree.18" }
%"class.std::_Rb_tree.18" = type { %"struct.std::_Rb_tree<int, std::pair<const int, vcg::TrackMode *>, std::_Select1st<std::pair<const int, vcg::TrackMode *>>, std::less<int>>::_Rb_tree_impl" }
%"struct.std::_Rb_tree<int, std::pair<const int, vcg::TrackMode *>, std::_Select1st<std::pair<const int, vcg::TrackMode *>>, std::less<int>>::_Rb_tree_impl" = type { %"struct.std::_Rb_tree_key_compare.22", %"struct.std::_Rb_tree_header" }
%"struct.std::_Rb_tree_key_compare.22" = type { %"struct.std::less.23" }
%"struct.std::less.23" = type { i8 }
%"class.vcg::Similarityf" = type { %"class.vcg::Similarity" }
%"class.vcg::Similarity" = type { %"class.vcg::Quaternion", %"class.vcg::Point3", float }
%"class.vcg::Point3" = type { [3 x float] }
%"class.std::vector.25" = type { %"struct.std::_Vector_base.26" }
%"struct.std::_Vector_base.26" = type { %"struct.std::_Vector_base<vcg::Point3<float>, std::allocator<vcg::Point3<float>>>::_Vector_impl" }
%"struct.std::_Vector_base<vcg::Point3<float>, std::allocator<vcg::Point3<float>>>::_Vector_impl" = type { %"struct.std::_Vector_base<vcg::Point3<float>, std::allocator<vcg::Point3<float>>>::_Vector_impl_data" }
%"struct.std::_Vector_base<vcg::Point3<float>, std::allocator<vcg::Point3<float>>>::_Vector_impl_data" = type { ptr, ptr, ptr }
%"class.vcg::Quaternion" = type { %"class.vcg::Point4.16" }
%"class.vcg::Point4.16" = type { [4 x float] }
%"class.std::__cxx11::list" = type { %"class.std::__cxx11::_List_base" }
%"class.std::__cxx11::_List_base" = type { %"struct.std::__cxx11::_List_base<vcg::Transform, std::allocator<vcg::Transform>>::_List_impl" }
%"struct.std::__cxx11::_List_base<vcg::Transform, std::allocator<vcg::Transform>>::_List_impl" = type { %"struct.std::__detail::_List_node_header" }
%"struct.std::__detail::_List_node_header" = type { %"struct.std::__detail::_List_node_base", i64 }
%"struct.std::__detail::_List_node_base" = type { ptr, ptr }
%class.GLAreaSetting = type { %"class.vcg::Color4", %"class.vcg::Color4", %"class.vcg::Color4", %"class.vcg::Color4", %"class.vcg::Color4", %"class.vcg::Color4", %"class.vcg::Color4", %"class.vcg::Color4", %"class.vcg::Color4", i32, i32, i32, i8, i8, float, i8, i8, i32, ptr }
%class.QMap = type { ptr }
%class.QList = type { %union.anon }
%union.anon = type { %struct.QListData }
%struct.QListData = type { ptr }
%class.QMap.33 = type { ptr }
%"class.vcg::Point2" = type { [2 x i32] }
%class.QFont = type <{ %class.QExplicitlySharedDataPointer, i32, [4 x i8] }>
%class.QExplicitlySharedDataPointer = type { ptr }
%class.QMap.34 = type { ptr }
%class.SnapshotSetting = type { %class.QString, %class.QString, i32, i32, i32, i8, i8, i8, i8 }
%class.QMap.35 = type { ptr }
%class.QImage = type { %class.QPaintDevice, ptr }

; Function Attrs: mustprogress nounwind uwtable
define linkonce_odr noundef float @_ZN3vcg4math5ToRadERKf(ptr noundef nonnull align 4 dereferenceable(4) %0) #4 comdat {
  %2 = alloca ptr, align 8
  store ptr %0, ptr %2, align 8
  %3 = load ptr, ptr %2, align 8
  %4 = load float, ptr %3, align 4
  %5 = fmul float 0x400921FB60000000, %4
  %6 = fdiv float %5, 1.800000e+02
  ret float %6
}

; Function Attrs: mustprogress nounwind uwtable
define linkonce_odr noundef float @_ZNK6GLArea9viewRatioEv(ptr noundef nonnull align 8 dereferenceable(1676) %0) #4 comdat align 2 {
  %2 = alloca ptr, align 8
  store ptr %0, ptr %2, align 8
  ret float 1.750000e+00
}

; Function Attrs: mustprogress uwtable
define noundef float @_ZN6GLArea17getCameraDistanceEv(ptr noundef nonnull align 8 dereferenceable(1676) %0) #5 align 2 {
  %2 = alloca ptr, align 8
  %3 = alloca float, align 4
  %4 = alloca float, align 4
  store ptr %0, ptr %2, align 8
  %5 = load ptr, ptr %2, align 8
  %6 = call noundef float @_ZNK6GLArea9viewRatioEv(ptr noundef nonnull align 8 dereferenceable(1676) %5)
  %7 = getelementptr inbounds %class.GLArea, ptr %5, i32 0, i32 37
  %8 = load float, ptr %7, align 8
  %9 = fmul float %8, 5.000000e-01
  store float %9, ptr %4, align 4
  %10 = call noundef float @_ZN3vcg4math5ToRadERKf(ptr noundef nonnull align 4 dereferenceable(4) %4)
  %11 = call float @tanf(float noundef %10) #3
  %12 = fdiv float %6, %11
  store float %12, ptr %3, align 4
  %13 = load float, ptr %3, align 4
  ret float %13
}