; Function Attrs: mustprogress nofree nounwind willreturn memory(write, argmem: readwrite) uwtable
define noundef float @_ZN6GLArea17getCameraDistanceEv(ptr nocapture noundef nonnull readonly align 8 dereferenceable(1676) %0) local_unnamed_addr #20 align 2 {
  %2 = getelementptr inbounds i8, ptr %0, i64 1496
  %3 = load float, ptr %2, align 8
  %4 = fmul float %3, 5.000000e-01
  %5 = fmul float %4, 0x400921FB60000000
  %6 = fdiv float %5, 1.800000e+02
  %7 = tail call float @tanf(float noundef %6) #32
  %8 = fdiv float 1.750000e+00, %7
  ret float %8
}